; Function Attrs: mustprogress nounwind uwtable
define hidden noundef ptr @_ZN9Metaspace8allocateEP15ClassLoaderDatamN12MetaspaceObj4TypeE(ptr noundef %0, i64 noundef %1, i32 noundef %2) local_unnamed_addr #0 align 2 {
  tail call void @_ZN27MetaspaceCriticalAllocation25block_if_concurrent_purgeEv() #14
  %4 = icmp ne i32 %2, 0
  %5 = zext i1 %4 to i32
  %6 = tail call noundef ptr @_ZN15ClassLoaderData18metaspace_non_nullEv(ptr noundef nonnull align 8 dereferenceable(160) %0) #14
  %7 = tail call noundef ptr @_ZN20ClassLoaderMetaspace8allocateEmN9Metaspace12MetadataTypeE(ptr noundef nonnull align 8 dereferenceable(32) %6, i64 noundef %1, i32 noundef %5) #14
  %.not = icmp eq ptr %7, null
  br i1 %.not, label %13, label %8

8:                                                ; preds = %3
  %.not6.i.i = icmp eq i64 %1, 0
  br i1 %.not6.i.i, label %_ZN4Copy13fill_to_wordsEPP12HeapWordImplmj.exit, label %.lr.ph.i.i.preheader

.lr.ph.i.i.preheader:                             ; preds = %8
  %9 = shl nuw i64 %1, 3
  tail call void @llvm.memset.p0.i64(ptr nonnull align 8 %7, i8 0, i64 %9, i1 false)
  br label %_ZN4Copy13fill_to_wordsEPP12HeapWordImplmj.exit

_ZN4Copy13fill_to_wordsEPP12HeapWordImplmj.exit:  ; preds = %.lr.ph.i.i.preheader, %8
  %10 = load volatile ptr, ptr getelementptr inbounds (i8, ptr @_ZN16LogTagSetMappingILN6LogTag4typeE84ELS1_0ELS1_0ELS1_0ELS1_0ELS1_0EE7_tagsetE, i64 48), align 8
  %.not9 = icmp eq ptr %10, null
  br i1 %.not9, label %13, label %11

11:                                               ; preds = %_ZN4Copy13fill_to_wordsEPP12HeapWordImplmj.exit
  %12 = ptrtoint ptr %7 to i64
  tail call void (ptr, ...) @_ZN7LogImplILN6LogTag4typeE84ELS1_0ELS1_0ELS1_0ELS1_0ELS1_0EE5writeILN8LogLevel4typeE1EEEvPKcz(ptr noundef nonnull @.str.31, i32 noundef %2, i64 noundef %12)
  br label %13

13:                                               ; preds = %11, %_ZN4Copy13fill_to_wordsEPP12HeapWordImplmj.exit, %3
  ret ptr %7
}